target datalayout = "e-m:e-p270:32:32-p271:32:32-p272:64:64-i64:64-i128:128-f80:128-n8:16:32:64-S128"
target triple = "x86_64-pc-linux-gnu"

%struct.nameData = type { [64 x i8] }
%struct.HeapTupleData = type { i32, %struct.ItemPointerData, i32, ptr }
%struct.ItemPointerData = type { %struct.BlockIdData, i16 }
%struct.BlockIdData = type { i16, i16 }
%struct.HeapTupleHeaderData = type { %union.anon.6, %struct.ItemPointerData, i16, i16, i8, [0 x i8] }
%union.anon.6 = type { %struct.HeapTupleFields }
%struct.HeapTupleFields = type { i32, i32, %union.anon.7 }
%union.anon.7 = type { i32 }
%struct.FormData_pg_database = type { i32, %struct.nameData, i32, i32, i8, i8, i8, i8, i32, i32, i32, i32 }

@.str.2 = private unnamed_addr constant [16 x i8] c"event_trigger.c\00", align 1
@MyDatabaseId = external global i32, align 4
@.str.34 = private unnamed_addr constant [36 x i8] c"cache lookup failed for database %u\00", align 1
@__func__.SetDatabaseHasLoginEventTriggers = private unnamed_addr constant [33 x i8] c"SetDatabaseHasLoginEventTriggers\00", align 1

; Function Attrs: inlinehint nounwind uwtable
define internal ptr @GETSTRUCT(ptr noundef %0) #6 {
  %2 = alloca ptr, align 8
  store ptr %0, ptr %2, align 8
  %3 = load ptr, ptr %2, align 8
  %4 = getelementptr inbounds nuw %struct.HeapTupleData, ptr %3, i32 0, i32 3
  %5 = load ptr, ptr %4, align 8
  %6 = load ptr, ptr %2, align 8
  %7 = getelementptr inbounds nuw %struct.HeapTupleData, ptr %6, i32 0, i32 3
  %8 = load ptr, ptr %7, align 8
  %9 = getelementptr inbounds nuw %struct.HeapTupleHeaderData, ptr %8, i32 0, i32 4
  %10 = load i8, ptr %9, align 2
  %11 = zext i8 %10 to i32
  %12 = sext i32 %11 to i64
  %13 = getelementptr inbounds i8, ptr %5, i64 %12
  ret ptr %13
}

; Function Attrs: inlinehint nounwind uwtable
define internal i64 @ObjectIdGetDatum(i32 noundef %0) #6 {
  %2 = alloca i32, align 4
  store i32 %0, ptr %2, align 4
  %3 = load i32, ptr %2, align 4
  %4 = zext i32 %3 to i64
  ret i64 %4
}

; Function Attrs: nounwind uwtable
define internal void @SetDatabaseHasLoginEventTriggers() #0 {
  %1 = alloca ptr, align 8
  %2 = alloca ptr, align 8
  %3 = alloca %struct.ItemPointerData, align 2
  %4 = alloca ptr, align 8
  call void @llvm.lifetime.start.p0(i64 8, ptr %1) #10
  call void @llvm.lifetime.start.p0(i64 8, ptr %2) #10
  %5 = call ptr @table_open(i32 noundef 1262, i32 noundef 3)
  store ptr %5, ptr %2, align 8
  call void @llvm.lifetime.start.p0(i64 6, ptr %3) #10
  call void @llvm.lifetime.start.p0(i64 8, ptr %4) #10
  %6 = load i32, ptr @MyDatabaseId, align 4
  call void @LockSharedObject(i32 noundef 1262, i32 noundef %6, i16 noundef zeroext 0, i32 noundef 8)
  %7 = load i32, ptr @MyDatabaseId, align 4
  %8 = call i64 @ObjectIdGetDatum(i32 noundef %7)
  %9 = call ptr @SearchSysCacheLockedCopy1(i32 noundef 21, i64 noundef %8)
  store ptr %9, ptr %4, align 8
  %10 = load ptr, ptr %4, align 8
  %11 = icmp ne ptr %10, null
  br i1 %11, label %24, label %12

12:                                               ; preds = %0
  br label %13

13:                                               ; preds = %12
  br i1 true, label %14, label %16

14:                                               ; preds = %13
  %15 = call zeroext i1 @errstart_cold(i32 noundef 21, ptr noundef null) #11
  br i1 %15, label %18, label %21

16:                                               ; preds = %13
  %17 = call zeroext i1 @errstart(i32 noundef 21, ptr noundef null)
  br i1 %17, label %18, label %21

18:                                               ; preds = %16, %14
  %19 = load i32, ptr @MyDatabaseId, align 4
  %20 = call i32 (ptr, ...) @errmsg_internal(ptr noundef @.str.34, i32 noundef %19)
  call void @errfinish(ptr noundef @.str.2, i32 noundef 405, ptr noundef @__func__.SetDatabaseHasLoginEventTriggers)
  br label %21

21:                                               ; preds = %18, %16, %14
  unreachable

22:                                               ; No predecessors!
  br label %23

23:                                               ; preds = %22
  br label %24

24:                                               ; preds = %23, %0
  %25 = load ptr, ptr %4, align 8
  %26 = getelementptr inbounds nuw %struct.HeapTupleData, ptr %25, i32 0, i32 1
  call void @llvm.memcpy.p0.p0.i64(ptr align 2 %3, ptr align 4 %26, i64 6, i1 false)
  %27 = load ptr, ptr %4, align 8
  %28 = call ptr @GETSTRUCT(ptr noundef %27)
  store ptr %28, ptr %1, align 8
  %29 = load ptr, ptr %1, align 8
  %30 = getelementptr inbounds nuw %struct.FormData_pg_database, ptr %29, i32 0, i32 7
  %31 = load i8, ptr %30, align 1, !range !8, !noundef !9
  %32 = trunc i8 %31 to i1
  br i1 %32, label %38, label %33

33:                                               ; preds = %24
  %34 = load ptr, ptr %1, align 8
  %35 = getelementptr inbounds nuw %struct.FormData_pg_database, ptr %34, i32 0, i32 7
  store i8 1, ptr %35, align 1
  %36 = load ptr, ptr %2, align 8
  %37 = load ptr, ptr %4, align 8
  call void @CatalogTupleUpdate(ptr noundef %36, ptr noundef %3, ptr noundef %37)
  call void @CommandCounterIncrement()
  br label %38

38:                                               ; preds = %33, %24
  %39 = load ptr, ptr %2, align 8
  call void @UnlockTuple(ptr noundef %39, ptr noundef %3, i32 noundef 7)
  %40 = load ptr, ptr %2, align 8
  call void @table_close(ptr noundef %40, i32 noundef 3)
  %41 = load ptr, ptr %4, align 8
  call void @heap_freetuple(ptr noundef %41)
  call void @llvm.lifetime.end.p0(i64 8, ptr %4) #10
  call void @llvm.lifetime.end.p0(i64 6, ptr %3) #10
  call void @llvm.lifetime.end.p0(i64 8, ptr %2) #10
  call void @llvm.lifetime.end.p0(i64 8, ptr %1) #10
  ret void
}