; Function Attrs: nounwind uwtable
define internal fastcc void @SetDatabaseHasLoginEventTriggers() unnamed_addr #0 {
  %1 = alloca %struct.ItemPointerData, align 2
  %2 = tail call ptr @table_open(i32 noundef 1262, i32 noundef 3) #16
  call void @llvm.lifetime.start.p0(i64 6, ptr nonnull %1) #16
  %3 = load i32, ptr @MyDatabaseId, align 4
  tail call void @LockSharedObject(i32 noundef 1262, i32 noundef %3, i16 noundef zeroext 0, i32 noundef 8) #16
  %4 = load i32, ptr @MyDatabaseId, align 4
  %5 = zext i32 %4 to i64
  %6 = tail call ptr @SearchSysCacheLockedCopy1(i32 noundef 21, i64 noundef %5) #16
  %.not = icmp eq ptr %6, null
  br i1 %.not, label %7, label %11

7:                                                ; preds = %0
  %8 = tail call zeroext i1 @errstart_cold(i32 noundef 21, ptr noundef null) #17
  tail call void @llvm.assume(i1 %8)
  %9 = load i32, ptr @MyDatabaseId, align 4
  %10 = tail call i32 (ptr, ...) @errmsg_internal(ptr noundef nonnull @.str.34, i32 noundef %9) #16
  tail call void @errfinish(ptr noundef nonnull @.str.2, i32 noundef 405, ptr noundef nonnull @__func__.SetDatabaseHasLoginEventTriggers) #16
  unreachable

11:                                               ; preds = %0
  %12 = getelementptr inbounds nuw i8, ptr %6, i64 4
  call void @llvm.memcpy.p0.p0.i64(ptr noundef nonnull align 2 dereferenceable(6) %1, ptr noundef nonnull align 4 dereferenceable(6) %12, i64 6, i1 false)
  %13 = getelementptr i8, ptr %6, i64 16
  %.val = load ptr, ptr %13, align 8
  %14 = getelementptr inbounds nuw i8, ptr %.val, i64 22
  %15 = load i8, ptr %14, align 2
  %16 = zext i8 %15 to i64
  %17 = getelementptr inbounds nuw i8, ptr %.val, i64 %16
  %18 = getelementptr inbounds nuw i8, ptr %17, i64 79
  %19 = load i8, ptr %18, align 1, !range !9, !noundef !10
  %20 = trunc nuw i8 %19 to i1
  br i1 %20, label %22, label %21

21:                                               ; preds = %11
  store i8 1, ptr %18, align 1
  call void @CatalogTupleUpdate(ptr noundef %2, ptr noundef nonnull %1, ptr noundef nonnull %6) #16
  call void @CommandCounterIncrement() #16
  br label %22

22:                                               ; preds = %21, %11
  call void @UnlockTuple(ptr noundef %2, ptr noundef nonnull %1, i32 noundef 7) #16
  call void @table_close(ptr noundef %2, i32 noundef 3) #16
  call void @heap_freetuple(ptr noundef nonnull %6) #16
  call void @llvm.lifetime.end.p0(i64 6, ptr nonnull %1) #16
  ret void
}